target datalayout = "e-m:e-p270:32:32-p271:32:32-p272:64:64-i64:64-i128:128-f80:128-n8:16:32:64-S128"
target triple = "x86_64-pc-linux-gnu"

@.str.14 = private unnamed_addr constant [33 x i8] c"../openssl/test/sslcorrupttest.c\00", align 1
@docorrupt = internal global i32 0, align 4
@.str.43 = private unnamed_addr constant [31 x i8] c"copy = OPENSSL_memdup(in, inl)\00", align 1

; Function Attrs: nounwind uwtable
define internal void @copy_flags(ptr noundef %0) #0 {
  %2 = alloca ptr, align 8
  %3 = alloca i32, align 4
  %4 = alloca ptr, align 8
  store ptr %0, ptr %2, align 8, !tbaa !23
  call void @llvm.lifetime.start.p0(i64 4, ptr %3) #4
  call void @llvm.lifetime.start.p0(i64 8, ptr %4) #4
  %5 = load ptr, ptr %2, align 8, !tbaa !23
  %6 = call ptr @BIO_next(ptr noundef %5)
  store ptr %6, ptr %4, align 8, !tbaa !23
  %7 = load ptr, ptr %4, align 8, !tbaa !23
  %8 = call i32 @BIO_test_flags(ptr noundef %7, i32 noundef 15)
  store i32 %8, ptr %3, align 4, !tbaa !9
  %9 = load ptr, ptr %2, align 8, !tbaa !23
  call void @BIO_clear_flags(ptr noundef %9, i32 noundef 15)
  %10 = load ptr, ptr %2, align 8, !tbaa !23
  %11 = load i32, ptr %3, align 4, !tbaa !9
  call void @BIO_set_flags(ptr noundef %10, i32 noundef %11)
  call void @llvm.lifetime.end.p0(i64 8, ptr %4) #4
  call void @llvm.lifetime.end.p0(i64 4, ptr %3) #4
  ret void
}

; Function Attrs: nounwind uwtable
define internal i32 @tls_corrupt_write(ptr noundef %0, ptr noundef %1, i32 noundef %2) #0 {
  %4 = alloca i32, align 4
  %5 = alloca ptr, align 8
  %6 = alloca ptr, align 8
  %7 = alloca i32, align 4
  %8 = alloca i32, align 4
  %9 = alloca ptr, align 8
  %10 = alloca ptr, align 8
  %11 = alloca i32, align 4
  store ptr %0, ptr %5, align 8, !tbaa !23
  store ptr %1, ptr %6, align 8, !tbaa !4
  store i32 %2, ptr %7, align 4, !tbaa !9
  call void @llvm.lifetime.start.p0(i64 4, ptr %8) #4
  call void @llvm.lifetime.start.p0(i64 8, ptr %9) #4
  %12 = load ptr, ptr %5, align 8, !tbaa !23
  %13 = call ptr @BIO_next(ptr noundef %12)
  store ptr %13, ptr %9, align 8, !tbaa !23
  call void @llvm.lifetime.start.p0(i64 8, ptr %10) #4
  %14 = load i32, ptr @docorrupt, align 4, !tbaa !9
  %15 = icmp ne i32 %14, 0
  br i1 %15, label %16, label %39

16:                                               ; preds = %3
  %17 = load ptr, ptr %6, align 8, !tbaa !4
  %18 = load i32, ptr %7, align 4, !tbaa !9
  %19 = sext i32 %18 to i64
  %20 = call noalias ptr @CRYPTO_memdup(ptr noundef %17, i64 noundef %19, ptr noundef @.str.14, i32 noundef 44)
  store ptr %20, ptr %10, align 8, !tbaa !4
  %21 = call i32 @test_ptr(ptr noundef @.str.14, i32 noundef 44, ptr noundef @.str.43, ptr noundef %20)
  %22 = icmp ne i32 %21, 0
  br i1 %22, label %24, label %23

23:                                               ; preds = %16
  store i32 0, ptr %4, align 4
  store i32 1, ptr %11, align 4
  br label %47

24:                                               ; preds = %16
  %25 = load ptr, ptr %10, align 8, !tbaa !4
  %26 = load i32, ptr %7, align 4, !tbaa !9
  %27 = sub nsw i32 %26, 1
  %28 = sext i32 %27 to i64
  %29 = getelementptr inbounds i8, ptr %25, i64 %28
  %30 = load i8, ptr %29, align 1, !tbaa !30
  %31 = sext i8 %30 to i32
  %32 = xor i32 %31, 1
  %33 = trunc i32 %32 to i8
  store i8 %33, ptr %29, align 1, !tbaa !30
  %34 = load ptr, ptr %9, align 8, !tbaa !23
  %35 = load ptr, ptr %10, align 8, !tbaa !4
  %36 = load i32, ptr %7, align 4, !tbaa !9
  %37 = call i32 @BIO_write(ptr noundef %34, ptr noundef %35, i32 noundef %36)
  store i32 %37, ptr %8, align 4, !tbaa !9
  %38 = load ptr, ptr %10, align 8, !tbaa !4
  call void @CRYPTO_free(ptr noundef %38, ptr noundef @.str.14, i32 noundef 49)
  br label %44

39:                                               ; preds = %3
  %40 = load ptr, ptr %9, align 8, !tbaa !23
  %41 = load ptr, ptr %6, align 8, !tbaa !4
  %42 = load i32, ptr %7, align 4, !tbaa !9
  %43 = call i32 @BIO_write(ptr noundef %40, ptr noundef %41, i32 noundef %42)
  store i32 %43, ptr %8, align 4, !tbaa !9
  br label %44

44:                                               ; preds = %39, %24
  %45 = load ptr, ptr %5, align 8, !tbaa !23
  call void @copy_flags(ptr noundef %45)
  %46 = load i32, ptr %8, align 4, !tbaa !9
  store i32 %46, ptr %4, align 4
  store i32 1, ptr %11, align 4
  br label %47

47:                                               ; preds = %44, %23
  call void @llvm.lifetime.end.p0(i64 8, ptr %10) #4
  call void @llvm.lifetime.end.p0(i64 8, ptr %9) #4
  call void @llvm.lifetime.end.p0(i64 4, ptr %8) #4
  %48 = load i32, ptr %4, align 4
  ret i32 %48
}