; Function Attrs: nounwind uwtable
define internal i32 @tls_corrupt_write(ptr noundef %0, ptr noundef %1, i32 noundef %2) #1 {
  %4 = tail call ptr @BIO_next(ptr noundef %0) #4
  %.b = load i1, ptr @docorrupt, align 4
  br i1 %.b, label %5, label %15

5:                                                ; preds = %3
  %6 = sext i32 %2 to i64
  %7 = tail call noalias ptr @CRYPTO_memdup(ptr noundef %1, i64 noundef %6, ptr noundef nonnull @.str.14, i32 noundef 44) #4
  %8 = tail call i32 @test_ptr(ptr noundef nonnull @.str.14, i32 noundef 44, ptr noundef nonnull @.str.43, ptr noundef %7) #4
  %.not = icmp eq i32 %8, 0
  br i1 %.not, label %20, label %9

9:                                                ; preds = %5
  %10 = getelementptr i8, ptr %7, i64 %6
  %11 = getelementptr i8, ptr %10, i64 -1
  %12 = load i8, ptr %11, align 1, !tbaa !20
  %13 = xor i8 %12, 1
  store i8 %13, ptr %11, align 1, !tbaa !20
  %14 = tail call i32 @BIO_write(ptr noundef %4, ptr noundef %7, i32 noundef %2) #4
  tail call void @CRYPTO_free(ptr noundef %7, ptr noundef nonnull @.str.14, i32 noundef 49) #4
  br label %17

15:                                               ; preds = %3
  %16 = tail call i32 @BIO_write(ptr noundef %4, ptr noundef %1, i32 noundef %2) #4
  br label %17

17:                                               ; preds = %15, %9
  %.014 = phi i32 [ %14, %9 ], [ %16, %15 ]
  %18 = tail call ptr @BIO_next(ptr noundef %0) #4
  %19 = tail call i32 @BIO_test_flags(ptr noundef %18, i32 noundef 15) #4
  tail call void @BIO_clear_flags(ptr noundef %0, i32 noundef 15) #4
  tail call void @BIO_set_flags(ptr noundef %0, i32 noundef %19) #4
  br label %20

20:                                               ; preds = %5, %17
  %.0 = phi i32 [ %.014, %17 ], [ 0, %5 ]
  ret i32 %.0
}